target datalayout = "e-m:e-p270:32:32-p271:32:32-p272:64:64-i64:64-i128:128-f80:128-n8:16:32:64-S128"
target triple = "x86_64-pc-linux-gnu"

@.str.7 = private unnamed_addr constant [29 x i8] c"%s:%d  expected %ld, got %ld\00", align 1

; Function Attrs: nounwind uwtable
define void @assert_equal(i64 noundef %0, i64 noundef %1, ptr noundef %2, i32 noundef %3) #0 {
  %5 = alloca i64, align 8
  %6 = alloca i64, align 8
  %7 = alloca ptr, align 8
  %8 = alloca i32, align 4
  store i64 %0, ptr %5, align 8, !tbaa !12
  store i64 %1, ptr %6, align 8, !tbaa !12
  store ptr %2, ptr %7, align 8, !tbaa !3
  store i32 %3, ptr %8, align 4, !tbaa !8
  %9 = load i64, ptr %5, align 8, !tbaa !12
  %10 = load i64, ptr %6, align 8, !tbaa !12
  %11 = icmp ne i64 %9, %10
  br i1 %11, label %12, label %17

12:                                               ; preds = %4
  %13 = load ptr, ptr %7, align 8, !tbaa !3
  %14 = load i32, ptr %8, align 4, !tbaa !8
  %15 = load i64, ptr %5, align 8, !tbaa !12
  %16 = load i64, ptr %6, align 8, !tbaa !12
  call void (ptr, ...) @CTEST_ERR(ptr noundef @.str.7, ptr noundef %13, i32 noundef %14, i64 noundef %15, i64 noundef %16)
  br label %17

17:                                               ; preds = %12, %4
  ret void
}